; Function Attrs: nounwind uwtable
define i32 @OCSP_id_cmp(ptr noundef %0, ptr noundef %1) local_unnamed_addr #0 {
  %3 = load ptr, ptr %0, align 8, !tbaa !20
  %4 = load ptr, ptr %1, align 8, !tbaa !20
  %5 = tail call i32 @OBJ_cmp(ptr noundef %3, ptr noundef %4) #3
  %.not.i = icmp eq i32 %5, 0
  br i1 %.not.i, label %6, label %OCSP_id_issuer_cmp.exit.thread

6:                                                ; preds = %2
  %7 = getelementptr inbounds nuw i8, ptr %0, i64 16
  %8 = getelementptr inbounds nuw i8, ptr %1, i64 16
  %9 = tail call i32 @ASN1_OCTET_STRING_cmp(ptr noundef nonnull %7, ptr noundef nonnull %8) #3
  %.not12.i = icmp eq i32 %9, 0
  br i1 %.not12.i, label %OCSP_id_issuer_cmp.exit, label %OCSP_id_issuer_cmp.exit.thread

OCSP_id_issuer_cmp.exit:                          ; preds = %6
  %10 = getelementptr inbounds nuw i8, ptr %0, i64 40
  %11 = getelementptr inbounds nuw i8, ptr %1, i64 40
  %12 = tail call i32 @ASN1_OCTET_STRING_cmp(ptr noundef nonnull %10, ptr noundef nonnull %11) #3
  %.not = icmp eq i32 %12, 0
  br i1 %.not, label %13, label %OCSP_id_issuer_cmp.exit.thread

13:                                               ; preds = %OCSP_id_issuer_cmp.exit
  %14 = getelementptr inbounds nuw i8, ptr %0, i64 64
  %15 = getelementptr inbounds nuw i8, ptr %1, i64 64
  %16 = tail call i32 @ASN1_INTEGER_cmp(ptr noundef nonnull %14, ptr noundef nonnull %15) #3
  br label %OCSP_id_issuer_cmp.exit.thread

OCSP_id_issuer_cmp.exit.thread:                   ; preds = %6, %2, %OCSP_id_issuer_cmp.exit, %13
  %.0 = phi i32 [ %16, %13 ], [ %12, %OCSP_id_issuer_cmp.exit ], [ %9, %6 ], [ %5, %2 ]
  ret i32 %.0
}